; Function Attrs: nounwind uwtable
define ptr @l_Lean_Compiler_LCNF_ScopeM_withNewScope___at_Lean_Compiler_LCNF_JoinPointContextExtender_withNewFunScope___spec__1___rarg(ptr noundef %0, ptr noundef %1, ptr noundef %2, ptr noundef %3, ptr noundef %4, ptr noundef %5, ptr noundef %6, ptr noundef %7, ptr noundef %8) #1 {
  tail call void @lean_inc_heartbeat() #5
  %10 = tail call noalias ptr @mi_malloc_small(i64 noundef 32) #5
  %11 = icmp eq ptr %10, null
  br i1 %11, label %12, label %lean_alloc_closure.exit

12:                                               ; preds = %9
  tail call void @lean_internal_panic_out_of_memory() #6
  unreachable

lean_alloc_closure.exit:                          ; preds = %9
  %13 = getelementptr inbounds nuw i8, ptr %10, i64 4
  store i32 1, ptr %10, align 4, !tbaa !8
  store i32 -184549344, ptr %13, align 4
  %14 = getelementptr inbounds nuw i8, ptr %10, i64 8
  store ptr @l_Lean_Compiler_LCNF_ScopeM_withNewScope___at_Lean_Compiler_LCNF_JoinPointFinder_find_go___spec__2___lambda__2___boxed, ptr %14, align 8, !tbaa !4
  %15 = getelementptr inbounds nuw i8, ptr %10, i64 16
  store i16 10, ptr %15, align 8, !tbaa !15
  %16 = getelementptr inbounds nuw i8, ptr %10, i64 18
  store i16 1, ptr %16, align 2, !tbaa !15
  %17 = getelementptr inbounds nuw i8, ptr %10, i64 24
  store ptr %0, ptr %17, align 8, !tbaa !4
  %18 = load ptr, ptr @l_Lean_Compiler_LCNF_ScopeM_withNewScope___at_Lean_Compiler_LCNF_JoinPointFinder_find_go___spec__2___closed__1, align 8, !tbaa !4
  tail call void @lean_inc_heartbeat() #5
  %19 = tail call noalias ptr @mi_malloc_small(i64 noundef 40) #5
  %20 = icmp eq ptr %19, null
  br i1 %20, label %21, label %lean_alloc_closure.exit16

21:                                               ; preds = %lean_alloc_closure.exit
  tail call void @lean_internal_panic_out_of_memory() #6
  unreachable

lean_alloc_closure.exit16:                        ; preds = %lean_alloc_closure.exit
  %22 = getelementptr inbounds nuw i8, ptr %19, i64 4
  store i32 1, ptr %19, align 4, !tbaa !8
  store i32 -184549336, ptr %22, align 4
  %23 = getelementptr inbounds nuw i8, ptr %19, i64 8
  store ptr @l_ReaderT_bind___at_Lean_Compiler_LCNF_JoinPointContextExtender_withNewFunScope___spec__2___rarg, ptr %23, align 8, !tbaa !4
  %24 = getelementptr inbounds nuw i8, ptr %19, i64 16
  store i16 10, ptr %24, align 8, !tbaa !15
  %25 = getelementptr inbounds nuw i8, ptr %19, i64 18
  store i16 2, ptr %25, align 2, !tbaa !15
  %26 = getelementptr inbounds nuw i8, ptr %19, i64 24
  store ptr %18, ptr %26, align 8, !tbaa !4
  %27 = getelementptr inbounds nuw i8, ptr %19, i64 32
  store ptr %10, ptr %27, align 8, !tbaa !4
  %28 = tail call ptr @l_Lean_Compiler_LCNF_ScopeM_withBackTrackingScope___at_Lean_Compiler_LCNF_JoinPointContextExtender_withNewFunScope___spec__3___rarg(ptr noundef nonnull %19, ptr noundef %1, ptr noundef %2, ptr noundef %3, ptr noundef %4, ptr noundef %5, ptr noundef %6, ptr noundef %7, ptr noundef %8)
  ret ptr %28
}